; Function Attrs: mustprogress uwtable
define void @_ZN5ZXing6Pdf41715DecodeCodewordsERSt6vectorIiSaIiEEi(ptr dead_on_unwind noalias writable sret(%"class.ZXing::DecoderResult") align 8 %0, ptr noundef nonnull align 8 dereferenceable(24) %1, i32 noundef %2) local_unnamed_addr #0 personality ptr @__gxx_personality_v0 {
  %4 = alloca i32, align 4
  %5 = load ptr, ptr %1, align 8
  %6 = getelementptr inbounds i8, ptr %1, i64 8
  %7 = load ptr, ptr %6, align 8
  %.not19 = icmp eq ptr %5, %7
  br i1 %.not19, label %_ZNSt6vectorIiSaIiEED2Ev.exit, label %.lr.ph

.lr.ph:                                           ; preds = %3, %.lr.ph
  %.sroa.016.020 = phi ptr [ %12, %.lr.ph ], [ %5, %3 ]
  store i32 0, ptr %4, align 4
  %8 = load i32, ptr %.sroa.016.020, align 4
  %9 = icmp slt i32 %8, 0
  %..i.i = select i1 %9, ptr %4, ptr %.sroa.016.020
  %10 = icmp sgt i32 %8, 928
  %..i3.i = select i1 %10, ptr @_ZN5ZXing6Pdf41715CodewordDecoder24MAX_CODEWORDS_IN_BARCODEE, ptr %..i.i
  %11 = load i32, ptr %..i3.i, align 4
  store i32 %11, ptr %.sroa.016.020, align 4
  %12 = getelementptr inbounds i8, ptr %.sroa.016.020, i64 4
  %.not = icmp eq ptr %12, %7
  br i1 %.not, label %_ZNSt6vectorIiSaIiEED2Ev.exit, label %.lr.ph

_ZNSt6vectorIiSaIiEED2Ev.exit:                    ; preds = %.lr.ph, %3
  tail call fastcc void @_ZN5ZXing6Pdf417L15DecodeCodewordsERSt6vectorIiSaIiEEiRKS3_(ptr dead_on_unwind noalias writable align 8 %0, ptr noundef nonnull align 8 dereferenceable(24) %1, i32 noundef %2, ptr null, ptr null)
  ret void
}